; Function Attrs: mustprogress nofree norecurse nosync nounwind willreturn memory(read, argmem: readwrite, inaccessiblemem: none) uwtable
define internal noundef range(i32 -1, 2) i32 @_ZL17luauF_readintegerIhEiP9lua_StateP10lua_TValueS3_iS3_i(ptr readnone captures(none) %0, ptr noundef writeonly captures(none) %1, ptr noundef readonly captures(none) %2, i32 noundef %3, ptr noundef readonly captures(none) %4, i32 noundef %5) #6 {
  %7 = icmp sgt i32 %5, 1
  %8 = icmp slt i32 %3, 2
  %or.cond = and i1 %8, %7
  br i1 %or.cond, label %9, label %29

9:                                                ; preds = %6
  %10 = getelementptr inbounds nuw i8, ptr %2, i64 12
  %11 = load i32, ptr %10, align 4, !tbaa !4
  %12 = icmp eq i32 %11, 10
  br i1 %12, label %13, label %29

13:                                               ; preds = %9
  %14 = getelementptr inbounds nuw i8, ptr %4, i64 12
  %15 = load i32, ptr %14, align 4, !tbaa !4
  %16 = icmp eq i32 %15, 3
  br i1 %16, label %17, label %29

17:                                               ; preds = %13
  %18 = load double, ptr %4, align 8, !tbaa !9
  %19 = fptosi double %18 to i32
  %20 = load ptr, ptr %2, align 8, !tbaa !9
  %21 = getelementptr inbounds nuw i8, ptr %20, i64 4
  %22 = load i32, ptr %21, align 4, !tbaa !79
  %.not = icmp ugt i32 %22, %19
  br i1 %.not, label %23, label %29

23:                                               ; preds = %17
  %24 = zext i32 %19 to i64
  %25 = getelementptr inbounds nuw i8, ptr %20, i64 8
  %26 = getelementptr inbounds nuw i8, ptr %25, i64 %24
  %.0.copyload = load i8, ptr %26, align 1
  %27 = uitofp i8 %.0.copyload to double
  store double %27, ptr %1, align 8, !tbaa !9
  %28 = getelementptr inbounds nuw i8, ptr %1, i64 12
  store i32 3, ptr %28, align 4, !tbaa !4
  br label %29

29:                                               ; preds = %6, %9, %13, %23, %17
  %.1 = phi i32 [ 1, %23 ], [ -1, %17 ], [ -1, %13 ], [ -1, %9 ], [ -1, %6 ]
  ret i32 %.1
}